; Function Attrs: nounwind uwtable
define internal fastcc noundef ptr @_readCTESearchClause() unnamed_addr #0 {
  %1 = alloca i32, align 4
  %2 = tail call noundef ptr @palloc0(i64 noundef 40) #10
  store i32 113, ptr %2, align 4
  call void @llvm.lifetime.start.p0(i64 4, ptr nonnull %1) #10
  %3 = call ptr @pg_strtok(ptr noundef nonnull %1) #10
  %4 = call ptr @nodeRead(ptr noundef null, i32 noundef 0) #10
  %5 = getelementptr inbounds nuw i8, ptr %2, i64 8
  store ptr %4, ptr %5, align 8
  %6 = call ptr @pg_strtok(ptr noundef nonnull %1) #10
  %7 = call ptr @pg_strtok(ptr noundef nonnull %1) #10
  %8 = load i8, ptr %7, align 1
  %9 = icmp eq i8 %8, 116
  %10 = getelementptr inbounds nuw i8, ptr %2, i64 16
  %11 = zext i1 %9 to i8
  store i8 %11, ptr %10, align 8
  %12 = call ptr @pg_strtok(ptr noundef nonnull %1) #10
  %13 = call ptr @pg_strtok(ptr noundef nonnull %1) #10
  %14 = load i32, ptr %1, align 4
  switch i32 %14, label %24 [
    i32 0, label %nullable_string.exit
    i32 2, label %15
  ]

15:                                               ; preds = %0
  %16 = load i8, ptr %13, align 1
  %17 = icmp eq i8 %16, 34
  br i1 %17, label %18, label %24

18:                                               ; preds = %15
  %19 = getelementptr inbounds nuw i8, ptr %13, i64 1
  %20 = load i8, ptr %19, align 1
  %21 = icmp eq i8 %20, 34
  br i1 %21, label %22, label %24

22:                                               ; preds = %18
  %23 = call ptr @pstrdup(ptr noundef nonnull @.str.326) #10
  br label %nullable_string.exit

24:                                               ; preds = %18, %15, %0
  %25 = call ptr @debackslash(ptr noundef %13, i32 noundef %14) #10
  br label %nullable_string.exit

nullable_string.exit:                             ; preds = %0, %22, %24
  %.0.i = phi ptr [ %23, %22 ], [ %25, %24 ], [ null, %0 ]
  %26 = getelementptr inbounds nuw i8, ptr %2, i64 24
  store ptr %.0.i, ptr %26, align 8
  %27 = call ptr @pg_strtok(ptr noundef nonnull %1) #10
  %28 = call ptr @pg_strtok(ptr noundef nonnull %1) #10
  %29 = getelementptr inbounds nuw i8, ptr %2, i64 32
  store i32 -1, ptr %29, align 8
  call void @llvm.lifetime.end.p0(i64 4, ptr nonnull %1) #10
  ret ptr %2
}